target datalayout = "e-m:e-p270:32:32-p271:32:32-p272:64:64-i64:64-i128:128-f80:128-n8:16:32:64-S128"
target triple = "x86_64-pc-linux-gnu"

%union.__CONST_SOCKADDR_ARG = type { ptr }
%struct.connect_arg = type { i32, i32, ptr }

; Function Attrs: nounwind sspstrong uwtable
define internal i64 @connect_blocking(ptr noundef %0) #0 {
  %2 = alloca ptr, align 8
  %3 = alloca ptr, align 8
  %4 = alloca %union.__CONST_SOCKADDR_ARG, align 8
  store ptr %0, ptr %2, align 8, !tbaa !25
  call void @llvm.lifetime.start.p0(i64 8, ptr %3) #21
  %5 = load ptr, ptr %2, align 8, !tbaa !25
  store ptr %5, ptr %3, align 8, !tbaa !72
  %6 = load ptr, ptr %3, align 8, !tbaa !72
  %7 = getelementptr inbounds nuw %struct.connect_arg, ptr %6, i32 0, i32 0
  %8 = load i32, ptr %7, align 8, !tbaa !68
  %9 = load ptr, ptr %3, align 8, !tbaa !72
  %10 = getelementptr inbounds nuw %struct.connect_arg, ptr %9, i32 0, i32 2
  %11 = load ptr, ptr %10, align 8, !tbaa !71
  store ptr %11, ptr %4, align 8, !tbaa !34
  %12 = load ptr, ptr %3, align 8, !tbaa !72
  %13 = getelementptr inbounds nuw %struct.connect_arg, ptr %12, i32 0, i32 1
  %14 = load i32, ptr %13, align 4, !tbaa !70
  %15 = getelementptr inbounds nuw %union.__CONST_SOCKADDR_ARG, ptr %4, i32 0, i32 0
  %16 = load ptr, ptr %15, align 8
  %17 = call i32 @connect(i32 noundef %8, ptr %16, i32 noundef %14)
  %18 = sext i32 %17 to i64
  call void @llvm.lifetime.end.p0(i64 8, ptr %3) #21
  ret i64 %18
}