; Function Attrs: nounwind sspstrong uwtable
define internal range(i64 -2147483648, 2147483648) i64 @connect_blocking(ptr noundef readonly captures(none) %0) #0 {
  %2 = load i32, ptr %0, align 8, !tbaa !68
  %3 = getelementptr inbounds nuw i8, ptr %0, i64 8
  %4 = load ptr, ptr %3, align 8, !tbaa !71
  %5 = getelementptr inbounds nuw i8, ptr %0, i64 4
  %6 = load i32, ptr %5, align 4, !tbaa !70
  %7 = tail call i32 @connect(i32 noundef %2, ptr %4, i32 noundef %6) #10
  %8 = sext i32 %7 to i64
  ret i64 %8
}